target datalayout = "e-m:e-p270:32:32-p271:32:32-p272:64:64-i64:64-i128:128-f80:128-n8:16:32:64-S128"
target triple = "x86_64-pc-linux-gnu"

%struct.Elf64_Ehdr = type { [16 x i8], i16, i16, i32, i64, i64, i64, i32, i16, i16, i16, i16, i16, i16 }
%struct.Elf64_Phdr = type { i32, i32, i64, i64, i64, i64, i64, i64 }

@.str.62 = private unnamed_addr constant [44 x i8] c"can't read program header of shared object\0A\00", align 1
@.str.63 = private unnamed_addr constant [56 x i8] c"can't read address of dynamic section in shared object\0A\00", align 1
@.str.64 = private unnamed_addr constant [63 x i8] c"lib_ld = 0x%lx, lib_dyn_addr = 0x%lx -> lib_base_diff = 0x%lx\0A\00", align 1

; Function Attrs: nounwind uwtable
define internal i64 @calc_prelinked_load_address(ptr noundef %0, i32 noundef %1, ptr noundef %2, i64 noundef %3) #0 {
  %5 = alloca i64, align 8
  %6 = alloca ptr, align 8
  %7 = alloca i32, align 4
  %8 = alloca ptr, align 8
  %9 = alloca i64, align 8
  %10 = alloca ptr, align 8
  %11 = alloca i64, align 8
  %12 = alloca i64, align 8
  %13 = alloca i64, align 8
  %14 = alloca i32, align 4
  store ptr %0, ptr %6, align 8
  store i32 %1, ptr %7, align 4
  store ptr %2, ptr %8, align 8
  store i64 %3, ptr %9, align 8
  store i64 0, ptr %12, align 8
  %15 = load i32, ptr %7, align 4
  %16 = load ptr, ptr %8, align 8
  %17 = call ptr @read_program_header_table(i32 noundef %15, ptr noundef %16)
  store ptr %17, ptr %10, align 8
  %18 = load ptr, ptr %10, align 8
  %19 = icmp eq ptr %18, null
  br i1 %19, label %20, label %21

20:                                               ; preds = %4
  call void (ptr, ...) @print_debug(ptr noundef @.str.62)
  store i64 -1, ptr %5, align 8
  br label %65

21:                                               ; preds = %4
  store i32 0, ptr %14, align 4
  br label %22

22:                                               ; preds = %45, %21
  %23 = load i32, ptr %14, align 4
  %24 = load ptr, ptr %8, align 8
  %25 = getelementptr inbounds %struct.Elf64_Ehdr, ptr %24, i32 0, i32 10
  %26 = load i16, ptr %25, align 8
  %27 = zext i16 %26 to i32
  %28 = icmp slt i32 %23, %27
  br i1 %28, label %29, label %48

29:                                               ; preds = %22
  %30 = load ptr, ptr %10, align 8
  %31 = load i32, ptr %14, align 4
  %32 = sext i32 %31 to i64
  %33 = getelementptr inbounds %struct.Elf64_Phdr, ptr %30, i64 %32
  %34 = getelementptr inbounds %struct.Elf64_Phdr, ptr %33, i32 0, i32 0
  %35 = load i32, ptr %34, align 8
  %36 = icmp eq i32 %35, 2
  br i1 %36, label %37, label %44

37:                                               ; preds = %29
  %38 = load ptr, ptr %10, align 8
  %39 = load i32, ptr %14, align 4
  %40 = sext i32 %39 to i64
  %41 = getelementptr inbounds %struct.Elf64_Phdr, ptr %38, i64 %40
  %42 = getelementptr inbounds %struct.Elf64_Phdr, ptr %41, i32 0, i32 3
  %43 = load i64, ptr %42, align 8
  store i64 %43, ptr %12, align 8
  br label %48

44:                                               ; preds = %29
  br label %45

45:                                               ; preds = %44
  %46 = load i32, ptr %14, align 4
  %47 = add nsw i32 %46, 1
  store i32 %47, ptr %14, align 4
  br label %22, !llvm.loop !17

48:                                               ; preds = %37, %22
  %49 = load ptr, ptr %10, align 8
  call void @free(ptr noundef %49) #8
  %50 = load ptr, ptr %6, align 8
  %51 = load i64, ptr %9, align 8
  %52 = inttoptr i64 %51 to ptr
  %53 = getelementptr inbounds i8, ptr %52, i64 16
  %54 = call i32 @ps_pdread(ptr noundef %50, ptr noundef %53, ptr noundef %11, i64 noundef 8)
  %55 = icmp ne i32 %54, 0
  br i1 %55, label %56, label %57

56:                                               ; preds = %48
  call void (ptr, ...) @print_debug(ptr noundef @.str.63)
  store i64 -1, ptr %5, align 8
  br label %65

57:                                               ; preds = %48
  %58 = load i64, ptr %11, align 8
  %59 = load i64, ptr %12, align 8
  %60 = sub i64 %58, %59
  store i64 %60, ptr %13, align 8
  %61 = load i64, ptr %11, align 8
  %62 = load i64, ptr %12, align 8
  %63 = load i64, ptr %13, align 8
  call void (ptr, ...) @print_debug(ptr noundef @.str.64, i64 noundef %61, i64 noundef %62, i64 noundef %63)
  %64 = load i64, ptr %13, align 8
  store i64 %64, ptr %5, align 8
  br label %65

65:                                               ; preds = %57, %56, %20
  %66 = load i64, ptr %5, align 8
  ret i64 %66
}