; Function Attrs: nounwind uwtable
define internal fastcc noundef i64 @calc_prelinked_load_address(ptr noundef %0, i32 noundef %1, ptr noundef %2, i64 noundef %3) unnamed_addr #0 {
  %5 = alloca i64, align 8
  %6 = tail call ptr @read_program_header_table(i32 noundef %1, ptr noundef %2) #15
  %7 = icmp eq ptr %6, null
  br i1 %7, label %10, label %.preheader

.preheader:                                       ; preds = %4
  %8 = getelementptr inbounds i8, ptr %2, i64 56
  %9 = load i16, ptr %8, align 8
  %.not21 = icmp eq i16 %9, 0
  br i1 %.not21, label %.loopexit, label %.lr.ph.preheader

.lr.ph.preheader:                                 ; preds = %.preheader
  %wide.trip.count = zext i16 %9 to i64
  br label %.lr.ph

10:                                               ; preds = %4
  tail call void (ptr, ...) @print_debug(ptr noundef nonnull @.str.62) #15
  br label %25

11:                                               ; preds = %.lr.ph
  %indvars.iv.next = add nuw nsw i64 %indvars.iv, 1
  %exitcond.not = icmp eq i64 %indvars.iv.next, %wide.trip.count
  br i1 %exitcond.not, label %.loopexit, label %.lr.ph, !llvm.loop !17

.lr.ph:                                           ; preds = %.lr.ph.preheader, %11
  %indvars.iv = phi i64 [ 0, %.lr.ph.preheader ], [ %indvars.iv.next, %11 ]
  %12 = getelementptr inbounds %struct.Elf64_Phdr, ptr %6, i64 %indvars.iv
  %13 = load i32, ptr %12, align 8
  %14 = icmp eq i32 %13, 2
  br i1 %14, label %15, label %11

15:                                               ; preds = %.lr.ph
  %16 = getelementptr inbounds i8, ptr %12, i64 16
  %17 = load i64, ptr %16, align 8
  br label %.loopexit

.loopexit:                                        ; preds = %11, %.preheader, %15
  %.018 = phi i64 [ %17, %15 ], [ 0, %.preheader ], [ 0, %11 ]
  tail call void @free(ptr noundef nonnull %6) #15
  %18 = inttoptr i64 %3 to ptr
  %19 = getelementptr inbounds i8, ptr %18, i64 16
  %20 = call i32 @ps_pdread(ptr noundef %0, ptr noundef nonnull %19, ptr noundef nonnull %5, i64 noundef 8) #15
  %.not = icmp eq i32 %20, 0
  br i1 %.not, label %22, label %21

21:                                               ; preds = %.loopexit
  call void (ptr, ...) @print_debug(ptr noundef nonnull @.str.63) #15
  br label %25

22:                                               ; preds = %.loopexit
  %23 = load i64, ptr %5, align 8
  %24 = sub i64 %23, %.018
  call void (ptr, ...) @print_debug(ptr noundef nonnull @.str.64, i64 noundef %23, i64 noundef %.018, i64 noundef %24) #15
  br label %25

25:                                               ; preds = %22, %21, %10
  %.017 = phi i64 [ -1, %10 ], [ -1, %21 ], [ %24, %22 ]
  ret i64 %.017
}